; Function Attrs: mustprogress uwtable
define hidden noundef zeroext i1 @_ZN3ue213can_die_earlyERKNS_7raw_dfaEj(ptr noundef nonnull readonly align 8 captures(none) dereferenceable(560) %0, i32 noundef %1) local_unnamed_addr #0 personality ptr @__gxx_personality_v0 {
  %3 = alloca %"class.std::map", align 8
  call void @llvm.lifetime.start.p0(i64 48, ptr nonnull %3) #22
  %4 = getelementptr inbounds nuw i8, ptr %3, i64 8
  store i32 0, ptr %4, align 8
  %5 = getelementptr inbounds nuw i8, ptr %3, i64 16
  store ptr null, ptr %5, align 8
  %6 = getelementptr inbounds nuw i8, ptr %3, i64 24
  store ptr %4, ptr %6, align 8
  %7 = getelementptr inbounds nuw i8, ptr %3, i64 32
  store ptr %4, ptr %7, align 8
  %8 = getelementptr inbounds nuw i8, ptr %3, i64 40
  store i64 0, ptr %8, align 8
  %9 = getelementptr inbounds nuw i8, ptr %0, i64 40
  %10 = load i16, ptr %9, align 8
  %11 = invoke fastcc noundef zeroext i1 @_ZN3ue2L13can_die_earlyERKNS_7raw_dfaEtRSt3mapItjSt4lessItESaISt4pairIKtjEEEj(ptr noundef nonnull align 8 dereferenceable(560) %0, i16 noundef zeroext %10, ptr noundef nonnull align 8 dereferenceable(48) %3, i32 noundef %1)
          to label %12 unwind label %17

12:                                               ; preds = %2
  %13 = load ptr, ptr %5, align 8
  invoke void @_ZNSt8_Rb_treeItSt4pairIKtjESt10_Select1stIS2_ESt4lessItESaIS2_EE8_M_eraseEPSt13_Rb_tree_nodeIS2_E(ptr noundef nonnull align 8 dereferenceable(48) %3, ptr noundef %13)
          to label %_ZNSt3mapItjSt4lessItESaISt4pairIKtjEEED2Ev.exit unwind label %14

14:                                               ; preds = %12
  %15 = landingpad { ptr, i32 }
          catch ptr null
  %16 = extractvalue { ptr, i32 } %15, 0
  call void @__clang_call_terminate(ptr %16) #26
  unreachable

_ZNSt3mapItjSt4lessItESaISt4pairIKtjEEED2Ev.exit: ; preds = %12
  call void @llvm.lifetime.end.p0(i64 48, ptr nonnull %3) #22
  ret i1 %11

17:                                               ; preds = %2
  %18 = landingpad { ptr, i32 }
          cleanup
  call void @_ZNSt3mapItjSt4lessItESaISt4pairIKtjEEED2Ev(ptr noundef nonnull align 8 dereferenceable(48) %3) #22
  call void @llvm.lifetime.end.p0(i64 48, ptr nonnull %3) #22
  resume { ptr, i32 } %18
}